target datalayout = "e-m:e-p270:32:32-p271:32:32-p272:64:64-i64:64-i128:128-f80:128-n8:16:32:64-S128"
target triple = "x86_64-pc-linux-gnu"

%struct.expert_field = type { i32, i32 }
%struct.MessageHeader = type { [4 x i8], %struct.Version, i8, i8, i32, i32, i32, ptr }
%struct.Version = type { i8, i8 }

@hf_GIAS_AccessManager_is_available_return = internal global i32 0, align 4
@hf_GIAS_AccessManager_is_available_use_mode = internal global i32 0, align 4
@ei_gias_unknown_giop_msg = internal global %struct.expert_field zeroinitializer, align 4
@ei_gias_unknown_exception = internal global %struct.expert_field zeroinitializer, align 4
@boundary = internal global i32 12, align 4
@.str.826 = private unnamed_addr constant [21 x i8] c"Unknown exception %d\00", align 1
@.str.827 = private unnamed_addr constant [24 x i8] c"Unknown GIOP message %d\00", align 1

; Function Attrs: null_pointer_is_valid sspstrong uwtable
define internal void @decode_GIAS_AccessManager_is_available(ptr noundef %0, ptr noundef %1, ptr noundef %2, ptr noundef %3, ptr noundef %4, ptr noundef %5, ptr noundef %6, i1 noundef zeroext %7) #0 {
  %9 = alloca ptr, align 8
  %10 = alloca ptr, align 8
  %11 = alloca ptr, align 8
  %12 = alloca ptr, align 8
  %13 = alloca ptr, align 8
  %14 = alloca ptr, align 8
  %15 = alloca ptr, align 8
  %16 = alloca i8, align 1
  store ptr %0, ptr %9, align 8
  store ptr %1, ptr %10, align 8
  store ptr %2, ptr %11, align 8
  store ptr %3, ptr %12, align 8
  store ptr %4, ptr %13, align 8
  store ptr %5, ptr %14, align 8
  store ptr %6, ptr %15, align 8
  %17 = zext i1 %7 to i8
  store i8 %17, ptr %16, align 1
  %18 = load ptr, ptr %14, align 8
  %19 = getelementptr inbounds nuw %struct.MessageHeader, ptr %18, i32 0, i32 3
  %20 = load i8, ptr %19, align 1
  %21 = zext i8 %20 to i32
  switch i32 %21, label %61 [
    i32 0, label %22
    i32 1, label %37
  ]

22:                                               ; preds = %8
  %23 = load ptr, ptr %9, align 8
  %24 = load ptr, ptr %10, align 8
  %25 = load ptr, ptr %11, align 8
  %26 = load ptr, ptr %13, align 8
  %27 = load i8, ptr %16, align 1, !range !6, !noundef !7
  %28 = trunc i8 %27 to i1
  %29 = load i32, ptr @boundary, align 4
  call void @get_CDR_object(ptr noundef %23, ptr noundef %24, ptr noundef %25, ptr noundef %26, i1 noundef zeroext %28, i32 noundef %29)
  %30 = load ptr, ptr %11, align 8
  %31 = load ptr, ptr %9, align 8
  %32 = load ptr, ptr %13, align 8
  %33 = load i8, ptr %16, align 1, !range !6, !noundef !7
  %34 = trunc i8 %33 to i1
  %35 = load i32, ptr @boundary, align 4
  %36 = load i32, ptr @hf_GIAS_AccessManager_is_available_use_mode, align 4
  call void @giop_add_CDR_string(ptr noundef %30, ptr noundef %31, ptr noundef %32, i1 noundef zeroext %34, i32 noundef %35, i32 noundef %36)
  br label %69

37:                                               ; preds = %8
  %38 = load ptr, ptr %14, align 8
  %39 = getelementptr inbounds nuw %struct.MessageHeader, ptr %38, i32 0, i32 6
  %40 = load i32, ptr %39, align 8
  switch i32 %40, label %53 [
    i32 0, label %41
    i32 1, label %60
  ]

41:                                               ; preds = %37
  %42 = load ptr, ptr %11, align 8
  %43 = load i32, ptr @hf_GIAS_AccessManager_is_available_return, align 4
  %44 = load ptr, ptr %9, align 8
  %45 = load ptr, ptr %13, align 8
  %46 = load i32, ptr %45, align 4
  %47 = sub i32 %46, 1
  %48 = load ptr, ptr %9, align 8
  %49 = load ptr, ptr %13, align 8
  %50 = call zeroext i1 @get_CDR_boolean(ptr noundef %48, ptr noundef %49)
  %51 = zext i1 %50 to i64
  %52 = call ptr @proto_tree_add_boolean(ptr noundef %42, i32 noundef %43, ptr noundef %44, i32 noundef %47, i32 noundef 1, i64 noundef %51)
  br label %60

53:                                               ; preds = %37
  %54 = load ptr, ptr %10, align 8
  %55 = load ptr, ptr %12, align 8
  %56 = load ptr, ptr %14, align 8
  %57 = getelementptr inbounds nuw %struct.MessageHeader, ptr %56, i32 0, i32 6
  %58 = load i32, ptr %57, align 8
  %59 = call ptr (ptr, ptr, ptr, ptr, ...) @expert_add_info_format(ptr noundef %54, ptr noundef %55, ptr noundef @ei_gias_unknown_exception, ptr noundef @.str.826, i32 noundef %58)
  br label %60

60:                                               ; preds = %53, %37, %41
  br label %69

61:                                               ; preds = %8
  %62 = load ptr, ptr %10, align 8
  %63 = load ptr, ptr %12, align 8
  %64 = load ptr, ptr %14, align 8
  %65 = getelementptr inbounds nuw %struct.MessageHeader, ptr %64, i32 0, i32 3
  %66 = load i8, ptr %65, align 1
  %67 = zext i8 %66 to i32
  %68 = call ptr (ptr, ptr, ptr, ptr, ...) @expert_add_info_format(ptr noundef %62, ptr noundef %63, ptr noundef @ei_gias_unknown_giop_msg, ptr noundef @.str.827, i32 noundef %67)
  br label %69

69:                                               ; preds = %61, %60, %22
  ret void
}