; Function Attrs: null_pointer_is_valid sspstrong uwtable
define internal fastcc void @decode_GIAS_AccessManager_is_available(ptr noundef %0, ptr noundef %1, ptr noundef %2, ptr noundef %3, ptr noundef %4, ptr noundef readonly captures(none) %5, i1 noundef zeroext %6) unnamed_addr #0 {
  %8 = getelementptr inbounds nuw i8, ptr %5, i64 7
  %9 = load i8, ptr %8, align 1
  switch i8 %9, label %24 [
    i8 0, label %10
    i8 1, label %12
  ]

10:                                               ; preds = %7
  tail call void @get_CDR_object(ptr noundef %0, ptr noundef %1, ptr noundef %2, ptr noundef %4, i1 noundef zeroext %6, i32 noundef 12)
  %11 = load i32, ptr @hf_GIAS_AccessManager_is_available_use_mode, align 4
  tail call void @giop_add_CDR_string(ptr noundef %2, ptr noundef %0, ptr noundef %4, i1 noundef zeroext %6, i32 noundef 12, i32 noundef %11)
  br label %27

12:                                               ; preds = %7
  %13 = getelementptr inbounds nuw i8, ptr %5, i64 16
  %14 = load i32, ptr %13, align 8
  switch i32 %14, label %22 [
    i32 0, label %15
    i32 1, label %27
  ]

15:                                               ; preds = %12
  %16 = load i32, ptr @hf_GIAS_AccessManager_is_available_return, align 4
  %17 = load i32, ptr %4, align 4
  %18 = add i32 %17, -1
  %19 = tail call zeroext i1 @get_CDR_boolean(ptr noundef %0, ptr noundef %4)
  %20 = zext i1 %19 to i64
  %21 = tail call ptr @proto_tree_add_boolean(ptr noundef %2, i32 noundef %16, ptr noundef %0, i32 noundef %18, i32 noundef 1, i64 noundef %20)
  br label %27

22:                                               ; preds = %12
  %23 = tail call ptr (ptr, ptr, ptr, ptr, ...) @expert_add_info_format(ptr noundef %1, ptr noundef %3, ptr noundef nonnull @ei_gias_unknown_exception, ptr noundef nonnull @.str.826, i32 noundef %14)
  br label %27

24:                                               ; preds = %7
  %25 = zext i8 %9 to i32
  %26 = tail call ptr (ptr, ptr, ptr, ptr, ...) @expert_add_info_format(ptr noundef %1, ptr noundef %3, ptr noundef nonnull @ei_gias_unknown_giop_msg, ptr noundef nonnull @.str.827, i32 noundef %25)
  br label %27

27:                                               ; preds = %12, %15, %22, %24, %10
  ret void
}